; ModuleID = 'source-C-CXX/41/423.c'
source_filename = "source-C-CXX/41/423.c"
target datalayout = "e-m:e-p270:32:32-p271:32:32-p272:64:64-i64:64-f80:128-n8:16:32:64-S128"
target triple = "x86_64-pc-linux-gnu"

@.str = private unnamed_addr constant [3 x i8] c"%d\00", align 1
@.str.1 = private unnamed_addr constant [4 x i8] c" %d\00", align 1

; Function Attrs: nofree nounwind sspstrong uwtable
define dso_local i32 @main() local_unnamed_addr #0 {
  %1 = alloca [200000 x i32], align 16
  %2 = alloca i32, align 4
  %3 = alloca i32, align 4
  %4 = bitcast [200000 x i32]* %1 to i8*
  call void @llvm.lifetime.start.p0i8(i64 800000, i8* nonnull %4) #4
  %5 = bitcast i32* %2 to i8*
  call void @llvm.lifetime.start.p0i8(i64 4, i8* nonnull %5) #4
  %6 = bitcast i32* %3 to i8*
  call void @llvm.lifetime.start.p0i8(i64 4, i8* nonnull %6) #4
  %7 = call i32 (i8*, ...) @__isoc99_scanf(i8* getelementptr inbounds ([3 x i8], [3 x i8]* @.str, i64 0, i64 0), i32* nonnull %2)
  %8 = load i32, i32* %2, align 4, !tbaa !5
  %9 = icmp sgt i32 %8, 0
  br i1 %9, label %10, label %18

10:                                               ; preds = %0, %10
  %11 = phi i64 [ %14, %10 ], [ 0, %0 ]
  %12 = getelementptr inbounds [200000 x i32], [200000 x i32]* %1, i64 0, i64 %11
  %13 = call i32 (i8*, ...) @__isoc99_scanf(i8* getelementptr inbounds ([3 x i8], [3 x i8]* @.str, i64 0, i64 0), i32* nonnull %12)
  %14 = add nuw nsw i64 %11, 1
  %15 = load i32, i32* %2, align 4, !tbaa !5
  %16 = sext i32 %15 to i64
  %17 = icmp slt i64 %14, %16
  br i1 %17, label %10, label %18, !llvm.loop !9

18:                                               ; preds = %10, %0
  %19 = call i32 (i8*, ...) @__isoc99_scanf(i8* getelementptr inbounds ([3 x i8], [3 x i8]* @.str, i64 0, i64 0), i32* nonnull %3)
  %20 = load i32, i32* %2, align 4, !tbaa !5
  %21 = load i32, i32* %3, align 4
  %22 = icmp sgt i32 %20, 0
  br i1 %22, label %23, label %114

23:                                               ; preds = %18, %108
  %24 = phi i32 [ %112, %108 ], [ %20, %18 ]
  %25 = phi i32 [ %111, %108 ], [ 0, %18 ]
  %26 = phi i32 [ %109, %108 ], [ 0, %18 ]
  %27 = sext i32 %25 to i64
  %28 = getelementptr inbounds [200000 x i32], [200000 x i32]* %1, i64 0, i64 %27
  %29 = load i32, i32* %28, align 4, !tbaa !5
  %30 = icmp eq i32 %29, %21
  br i1 %30, label %31, label %108

31:                                               ; preds = %23
  %32 = icmp slt i32 %25, %24
  br i1 %32, label %33, label %105

33:                                               ; preds = %31
  %34 = sext i32 %24 to i64
  %35 = sub nsw i64 %34, %27
  %36 = icmp ult i64 %35, 8
  br i1 %36, label %96, label %37

37:                                               ; preds = %33
  %38 = and i64 %35, -8
  %39 = add nsw i64 %38, %27
  %40 = add nsw i64 %38, -8
  %41 = lshr exact i64 %40, 3
  %42 = add nuw nsw i64 %41, 1
  %43 = and i64 %42, 1
  %44 = icmp eq i64 %40, 0
  br i1 %44, label %78, label %45

45:                                               ; preds = %37
  %46 = and i64 %42, 4611686018427387902
  br label %47

47:                                               ; preds = %47, %45
  %48 = phi i64 [ 0, %45 ], [ %75, %47 ]
  %49 = phi i64 [ %46, %45 ], [ %76, %47 ]
  %50 = add i64 %48, %27
  %51 = add nsw i64 %50, 1
  %52 = getelementptr inbounds [200000 x i32], [200000 x i32]* %1, i64 0, i64 %51
  %53 = bitcast i32* %52 to <4 x i32>*
  %54 = load <4 x i32>, <4 x i32>* %53, align 4, !tbaa !5
  %55 = getelementptr inbounds i32, i32* %52, i64 4
  %56 = bitcast i32* %55 to <4 x i32>*
  %57 = load <4 x i32>, <4 x i32>* %56, align 4, !tbaa !5
  %58 = getelementptr inbounds [200000 x i32], [200000 x i32]* %1, i64 0, i64 %50
  %59 = bitcast i32* %58 to <4 x i32>*
  store <4 x i32> %54, <4 x i32>* %59, align 4, !tbaa !5
  %60 = getelementptr inbounds i32, i32* %58, i64 4
  %61 = bitcast i32* %60 to <4 x i32>*
  store <4 x i32> %57, <4 x i32>* %61, align 4, !tbaa !5
  %62 = or i64 %48, 8
  %63 = add i64 %62, %27
  %64 = add nsw i64 %63, 1
  %65 = getelementptr inbounds [200000 x i32], [200000 x i32]* %1, i64 0, i64 %64
  %66 = bitcast i32* %65 to <4 x i32>*
  %67 = load <4 x i32>, <4 x i32>* %66, align 4, !tbaa !5
  %68 = getelementptr inbounds i32, i32* %65, i64 4
  %69 = bitcast i32* %68 to <4 x i32>*
  %70 = load <4 x i32>, <4 x i32>* %69, align 4, !tbaa !5
  %71 = getelementptr inbounds [200000 x i32], [200000 x i32]* %1, i64 0, i64 %63
  %72 = bitcast i32* %71 to <4 x i32>*
  store <4 x i32> %67, <4 x i32>* %72, align 4, !tbaa !5
  %73 = getelementptr inbounds i32, i32* %71, i64 4
  %74 = bitcast i32* %73 to <4 x i32>*
  store <4 x i32> %70, <4 x i32>* %74, align 4, !tbaa !5
  %75 = add nuw i64 %48, 16
  %76 = add i64 %49, -2
  %77 = icmp eq i64 %76, 0
  br i1 %77, label %78, label %47, !llvm.loop !11

78:                                               ; preds = %47, %37
  %79 = phi i64 [ 0, %37 ], [ %75, %47 ]
  %80 = icmp eq i64 %43, 0
  br i1 %80, label %94, label %81

81:                                               ; preds = %78
  %82 = add i64 %79, %27
  %83 = add nsw i64 %82, 1
  %84 = getelementptr inbounds [200000 x i32], [200000 x i32]* %1, i64 0, i64 %83
  %85 = bitcast i32* %84 to <4 x i32>*
  %86 = load <4 x i32>, <4 x i32>* %85, align 4, !tbaa !5
  %87 = getelementptr inbounds i32, i32* %84, i64 4
  %88 = bitcast i32* %87 to <4 x i32>*
  %89 = load <4 x i32>, <4 x i32>* %88, align 4, !tbaa !5
  %90 = getelementptr inbounds [200000 x i32], [200000 x i32]* %1, i64 0, i64 %82
  %91 = bitcast i32* %90 to <4 x i32>*
  store <4 x i32> %86, <4 x i32>* %91, align 4, !tbaa !5
  %92 = getelementptr inbounds i32, i32* %90, i64 4
  %93 = bitcast i32* %92 to <4 x i32>*
  store <4 x i32> %89, <4 x i32>* %93, align 4, !tbaa !5
  br label %94

94:                                               ; preds = %78, %81
  %95 = icmp eq i64 %35, %38
  br i1 %95, label %105, label %96

96:                                               ; preds = %33, %94
  %97 = phi i64 [ %27, %33 ], [ %39, %94 ]
  br label %98

98:                                               ; preds = %96, %98
  %99 = phi i64 [ %100, %98 ], [ %97, %96 ]
  %100 = add nsw i64 %99, 1
  %101 = getelementptr inbounds [200000 x i32], [200000 x i32]* %1, i64 0, i64 %100
  %102 = load i32, i32* %101, align 4, !tbaa !5
  %103 = getelementptr inbounds [200000 x i32], [200000 x i32]* %1, i64 0, i64 %99
  store i32 %102, i32* %103, align 4, !tbaa !5
  %104 = icmp eq i64 %100, %34
  br i1 %104, label %105, label %98, !llvm.loop !13

105:                                              ; preds = %98, %94, %31
  %106 = add nsw i32 %26, 1
  %107 = add nsw i32 %25, -1
  br label %108

108:                                              ; preds = %23, %105
  %109 = phi i32 [ %106, %105 ], [ %26, %23 ]
  %110 = phi i32 [ %107, %105 ], [ %25, %23 ]
  %111 = add nsw i32 %110, 1
  %112 = sub nsw i32 %20, %109
  %113 = icmp slt i32 %111, %112
  br i1 %113, label %23, label %114, !llvm.loop !15

114:                                              ; preds = %108, %18
  %115 = phi i32 [ 0, %18 ], [ %109, %108 ]
  %116 = getelementptr inbounds [200000 x i32], [200000 x i32]* %1, i64 0, i64 0
  %117 = load i32, i32* %116, align 16, !tbaa !5
  %118 = call i32 (i8*, ...) @printf(i8* nonnull dereferenceable(1) getelementptr inbounds ([3 x i8], [3 x i8]* @.str, i64 0, i64 0), i32 %117)
  %119 = load i32, i32* %2, align 4, !tbaa !5
  %120 = sub nsw i32 %119, %115
  %121 = icmp sgt i32 %120, 1
  br i1 %121, label %122, label %132

122:                                              ; preds = %114, %122
  %123 = phi i64 [ %127, %122 ], [ 1, %114 ]
  %124 = getelementptr inbounds [200000 x i32], [200000 x i32]* %1, i64 0, i64 %123
  %125 = load i32, i32* %124, align 4, !tbaa !5
  %126 = call i32 (i8*, ...) @printf(i8* nonnull dereferenceable(1) getelementptr inbounds ([4 x i8], [4 x i8]* @.str.1, i64 0, i64 0), i32 %125)
  %127 = add nuw nsw i64 %123, 1
  %128 = load i32, i32* %2, align 4, !tbaa !5
  %129 = sub nsw i32 %128, %115
  %130 = sext i32 %129 to i64
  %131 = icmp slt i64 %127, %130
  br i1 %131, label %122, label %132, !llvm.loop !16

132:                                              ; preds = %122, %114
  %133 = call i32 @putchar(i32 10)
  call void @llvm.lifetime.end.p0i8(i64 4, i8* nonnull %6) #4
  call void @llvm.lifetime.end.p0i8(i64 4, i8* nonnull %5) #4
  call void @llvm.lifetime.end.p0i8(i64 800000, i8* nonnull %4) #4
  ret i32 0
}

; Function Attrs: argmemonly mustprogress nofree nosync nounwind willreturn
declare void @llvm.lifetime.start.p0i8(i64 immarg, i8* nocapture) #1

; Function Attrs: nofree nounwind
declare noundef i32 @__isoc99_scanf(i8* nocapture noundef readonly, ...) local_unnamed_addr #2

; Function Attrs: nofree nounwind
declare noundef i32 @printf(i8* nocapture noundef readonly, ...) local_unnamed_addr #2

; Function Attrs: argmemonly mustprogress nofree nosync nounwind willreturn
declare void @llvm.lifetime.end.p0i8(i64 immarg, i8* nocapture) #1

; Function Attrs: nofree nounwind
declare noundef i32 @putchar(i32 noundef) local_unnamed_addr #3


!llvm.module.flags = !{!0, !1, !2, !3}
!llvm.ident = !{!4}

!0 = !{i32 1, !"wchar_size", i32 4}
!1 = !{i32 7, !"PIC Level", i32 2}
!2 = !{i32 7, !"PIE Level", i32 2}
!3 = !{i32 7, !"uwtable", i32 1}
!4 = !{!"clang version 13.0.0"}
!5 = !{!6, !6, i64 0}
!6 = !{!"int", !7, i64 0}
!7 = !{!"omnipotent char", !8, i64 0}
!8 = !{!"Simple C/C++ TBAA"}
!9 = distinct !{!9, !10}
!10 = !{!"llvm.loop.mustprogress"}
!11 = distinct !{!11, !10, !12}
!12 = !{!"llvm.loop.isvectorized", i32 1}
!13 = distinct !{!13, !10, !14, !12}
!14 = !{!"llvm.loop.unroll.runtime.disable"}
!15 = distinct !{!15, !10}
!16 = distinct !{!16, !10}
